target datalayout = "e-m:e-p270:32:32-p271:32:32-p272:64:64-i64:64-i128:128-f80:128-n8:16:32:64-S128"
target triple = "x86_64-pc-linux-gnu"

%"struct.OpenColorIO_v2_5dev::Chromaticities" = type { [2 x double] }
%"struct.OpenColorIO_v2_5dev::Primaries" = type { %"struct.OpenColorIO_v2_5dev::Chromaticities", %"struct.OpenColorIO_v2_5dev::Chromaticities", %"struct.OpenColorIO_v2_5dev::Chromaticities", %"struct.OpenColorIO_v2_5dev::Chromaticities" }
%"struct.std::array" = type { [3 x float] }
%"struct.OpenColorIO_v2_5dev::ACES2::JMhParams" = type { float, float, float, float, %"struct.std::array", %"struct.std::array", %"struct.std::array.0", %"struct.std::array.0" }
%"struct.std::array.0" = type { [9 x float] }
%"struct.std::_Vector_base.5" = type { %"struct.std::_Vector_base<double, std::allocator<double>>::_Vector_impl" }
%"struct.std::_Vector_base<double, std::allocator<double>>::_Vector_impl" = type { %"struct.std::_Vector_base<double, std::allocator<double>>::_Vector_impl_data" }
%"struct.std::_Vector_base<double, std::allocator<double>>::_Vector_impl_data" = type { ptr, ptr, ptr }

; Function Attrs: mustprogress nounwind uwtable
define linkonce_odr hidden void @_ZN19OpenColorIO_v2_5dev14ChromaticitiesC2ERKS0_(ptr noundef nonnull align 8 dereferenceable(16) %0, ptr noundef nonnull align 8 dereferenceable(16) %1) unnamed_addr #4 comdat align 2 {
  %3 = alloca ptr, align 8
  %4 = alloca ptr, align 8
  store ptr %0, ptr %3, align 8, !tbaa !3
  store ptr %1, ptr %4, align 8, !tbaa !3
  %5 = load ptr, ptr %3, align 8
  %6 = getelementptr inbounds nuw %"struct.OpenColorIO_v2_5dev::Chromaticities", ptr %5, i32 0, i32 0
  store double 0.000000e+00, ptr %6, align 8, !tbaa !8
  %7 = getelementptr inbounds double, ptr %6, i64 1
  store double 0.000000e+00, ptr %7, align 8, !tbaa !8
  %8 = load ptr, ptr %4, align 8, !tbaa !3
  %9 = getelementptr inbounds nuw %"struct.OpenColorIO_v2_5dev::Chromaticities", ptr %8, i32 0, i32 0
  %10 = getelementptr inbounds [2 x double], ptr %9, i64 0, i64 0
  %11 = load double, ptr %10, align 8, !tbaa !8
  %12 = getelementptr inbounds nuw %"struct.OpenColorIO_v2_5dev::Chromaticities", ptr %5, i32 0, i32 0
  %13 = getelementptr inbounds [2 x double], ptr %12, i64 0, i64 0
  store double %11, ptr %13, align 8, !tbaa !8
  %14 = load ptr, ptr %4, align 8, !tbaa !3
  %15 = getelementptr inbounds nuw %"struct.OpenColorIO_v2_5dev::Chromaticities", ptr %14, i32 0, i32 0
  %16 = getelementptr inbounds [2 x double], ptr %15, i64 0, i64 1
  %17 = load double, ptr %16, align 8, !tbaa !8
  %18 = getelementptr inbounds nuw %"struct.OpenColorIO_v2_5dev::Chromaticities", ptr %5, i32 0, i32 0
  %19 = getelementptr inbounds [2 x double], ptr %18, i64 0, i64 1
  store double %17, ptr %19, align 8, !tbaa !8
  ret void
}

; Function Attrs: mustprogress uwtable
define linkonce_odr hidden void @_ZN19OpenColorIO_v2_5dev9PrimariesC2ERKNS_14ChromaticitiesES3_S3_S3_(ptr noundef nonnull align 8 dereferenceable(64) %0, ptr noundef nonnull align 8 dereferenceable(16) %1, ptr noundef nonnull align 8 dereferenceable(16) %2, ptr noundef nonnull align 8 dereferenceable(16) %3, ptr noundef nonnull align 8 dereferenceable(16) %4) unnamed_addr #6 comdat align 2 {
  %6 = alloca ptr, align 8
  %7 = alloca ptr, align 8
  %8 = alloca ptr, align 8
  %9 = alloca ptr, align 8
  %10 = alloca ptr, align 8
  store ptr %0, ptr %6, align 8, !tbaa !10
  store ptr %1, ptr %7, align 8, !tbaa !3
  store ptr %2, ptr %8, align 8, !tbaa !3
  store ptr %3, ptr %9, align 8, !tbaa !3
  store ptr %4, ptr %10, align 8, !tbaa !3
  %11 = load ptr, ptr %6, align 8
  %12 = getelementptr inbounds nuw %"struct.OpenColorIO_v2_5dev::Primaries", ptr %11, i32 0, i32 0
  %13 = load ptr, ptr %7, align 8, !tbaa !3
  call void @_ZN19OpenColorIO_v2_5dev14ChromaticitiesC2ERKS0_(ptr noundef nonnull align 8 dereferenceable(16) %12, ptr noundef nonnull align 8 dereferenceable(16) %13)
  %14 = getelementptr inbounds nuw %"struct.OpenColorIO_v2_5dev::Primaries", ptr %11, i32 0, i32 1
  %15 = load ptr, ptr %8, align 8, !tbaa !3
  call void @_ZN19OpenColorIO_v2_5dev14ChromaticitiesC2ERKS0_(ptr noundef nonnull align 8 dereferenceable(16) %14, ptr noundef nonnull align 8 dereferenceable(16) %15)
  %16 = getelementptr inbounds nuw %"struct.OpenColorIO_v2_5dev::Primaries", ptr %11, i32 0, i32 2
  %17 = load ptr, ptr %9, align 8, !tbaa !3
  call void @_ZN19OpenColorIO_v2_5dev14ChromaticitiesC2ERKS0_(ptr noundef nonnull align 8 dereferenceable(16) %16, ptr noundef nonnull align 8 dereferenceable(16) %17)
  %18 = getelementptr inbounds nuw %"struct.OpenColorIO_v2_5dev::Primaries", ptr %11, i32 0, i32 3
  %19 = load ptr, ptr %10, align 8, !tbaa !3
  call void @_ZN19OpenColorIO_v2_5dev14ChromaticitiesC2ERKS0_(ptr noundef nonnull align 8 dereferenceable(16) %18, ptr noundef nonnull align 8 dereferenceable(16) %19)
  ret void
}

; Function Attrs: mustprogress nounwind uwtable
define linkonce_odr hidden void @_ZN19OpenColorIO_v2_5dev14ChromaticitiesC2Edd(ptr noundef nonnull align 8 dereferenceable(16) %0, double noundef %1, double noundef %2) unnamed_addr #4 comdat align 2 {
  %4 = alloca ptr, align 8
  %5 = alloca double, align 8
  %6 = alloca double, align 8
  store ptr %0, ptr %4, align 8, !tbaa !3
  store double %1, ptr %5, align 8, !tbaa !8
  store double %2, ptr %6, align 8, !tbaa !8
  %7 = load ptr, ptr %4, align 8
  %8 = getelementptr inbounds nuw %"struct.OpenColorIO_v2_5dev::Chromaticities", ptr %7, i32 0, i32 0
  store double 0.000000e+00, ptr %8, align 8, !tbaa !8
  %9 = getelementptr inbounds double, ptr %8, i64 1
  store double 0.000000e+00, ptr %9, align 8, !tbaa !8
  %10 = load double, ptr %5, align 8, !tbaa !8
  %11 = getelementptr inbounds nuw %"struct.OpenColorIO_v2_5dev::Chromaticities", ptr %7, i32 0, i32 0
  %12 = getelementptr inbounds [2 x double], ptr %11, i64 0, i64 0
  store double %10, ptr %12, align 8, !tbaa !8
  %13 = load double, ptr %6, align 8, !tbaa !8
  %14 = getelementptr inbounds nuw %"struct.OpenColorIO_v2_5dev::Chromaticities", ptr %7, i32 0, i32 0
  %15 = getelementptr inbounds [2 x double], ptr %14, i64 0, i64 1
  store double %13, ptr %15, align 8, !tbaa !8
  ret void
}

; Function Attrs: mustprogress nounwind uwtable
define linkonce_odr hidden noundef nonnull align 8 dereferenceable(8) ptr @_ZNKSt6vectorIdSaIdEEixEm(ptr noundef nonnull align 8 dereferenceable(24) %0, i64 noundef %1) #4 comdat align 2 {
  %3 = alloca ptr, align 8
  %4 = alloca i64, align 8
  store ptr %0, ptr %3, align 8, !tbaa !102
  store i64 %1, ptr %4, align 8, !tbaa !41
  %5 = load ptr, ptr %3, align 8
  %6 = getelementptr inbounds nuw %"struct.std::_Vector_base.5", ptr %5, i32 0, i32 0
  %7 = getelementptr inbounds nuw %"struct.std::_Vector_base<double, std::allocator<double>>::_Vector_impl_data", ptr %6, i32 0, i32 0
  %8 = load ptr, ptr %7, align 8, !tbaa !104
  %9 = load i64, ptr %4, align 8, !tbaa !41
  %10 = getelementptr inbounds nuw double, ptr %8, i64 %9
  ret ptr %10
}

; Function Attrs: mustprogress uwtable
define hidden void @_ZN19OpenColorIO_v2_5dev21Add_JMh_to_RGB_ShaderERSt10shared_ptrINS_16GpuShaderCreatorEERNS_13GpuShaderTextERKSt6vectorIdSaIdEE(ptr noundef nonnull align 8 dereferenceable(16) %0, ptr noundef nonnull align 8 dereferenceable(764) %1, ptr noundef nonnull align 8 dereferenceable(24) %2) #6 {
  %4 = alloca ptr, align 8
  %5 = alloca ptr, align 8
  %6 = alloca ptr, align 8
  %7 = alloca float, align 4
  %8 = alloca float, align 4
  %9 = alloca float, align 4
  %10 = alloca float, align 4
  %11 = alloca float, align 4
  %12 = alloca float, align 4
  %13 = alloca float, align 4
  %14 = alloca float, align 4
  %15 = alloca %"struct.OpenColorIO_v2_5dev::Primaries", align 8
  %16 = alloca %"struct.OpenColorIO_v2_5dev::Chromaticities", align 8
  %17 = alloca %"struct.OpenColorIO_v2_5dev::Chromaticities", align 8
  %18 = alloca %"struct.OpenColorIO_v2_5dev::Chromaticities", align 8
  %19 = alloca %"struct.OpenColorIO_v2_5dev::Chromaticities", align 8
  %20 = alloca %"struct.OpenColorIO_v2_5dev::ACES2::JMhParams", align 4
  store ptr %0, ptr %4, align 8, !tbaa !12
  store ptr %1, ptr %5, align 8, !tbaa !14
  store ptr %2, ptr %6, align 8, !tbaa !102
  call void @llvm.lifetime.start.p0(i64 4, ptr %7) #3
  %21 = load ptr, ptr %6, align 8, !tbaa !102
  %22 = call noundef nonnull align 8 dereferenceable(8) ptr @_ZNKSt6vectorIdSaIdEEixEm(ptr noundef nonnull align 8 dereferenceable(24) %21, i64 noundef 0) #3
  %23 = load double, ptr %22, align 8, !tbaa !8
  %24 = fptrunc double %23 to float
  store float %24, ptr %7, align 4, !tbaa !16
  call void @llvm.lifetime.start.p0(i64 4, ptr %8) #3
  %25 = load ptr, ptr %6, align 8, !tbaa !102
  %26 = call noundef nonnull align 8 dereferenceable(8) ptr @_ZNKSt6vectorIdSaIdEEixEm(ptr noundef nonnull align 8 dereferenceable(24) %25, i64 noundef 1) #3
  %27 = load double, ptr %26, align 8, !tbaa !8
  %28 = fptrunc double %27 to float
  store float %28, ptr %8, align 4, !tbaa !16
  call void @llvm.lifetime.start.p0(i64 4, ptr %9) #3
  %29 = load ptr, ptr %6, align 8, !tbaa !102
  %30 = call noundef nonnull align 8 dereferenceable(8) ptr @_ZNKSt6vectorIdSaIdEEixEm(ptr noundef nonnull align 8 dereferenceable(24) %29, i64 noundef 2) #3
  %31 = load double, ptr %30, align 8, !tbaa !8
  %32 = fptrunc double %31 to float
  store float %32, ptr %9, align 4, !tbaa !16
  call void @llvm.lifetime.start.p0(i64 4, ptr %10) #3
  %33 = load ptr, ptr %6, align 8, !tbaa !102
  %34 = call noundef nonnull align 8 dereferenceable(8) ptr @_ZNKSt6vectorIdSaIdEEixEm(ptr noundef nonnull align 8 dereferenceable(24) %33, i64 noundef 3) #3
  %35 = load double, ptr %34, align 8, !tbaa !8
  %36 = fptrunc double %35 to float
  store float %36, ptr %10, align 4, !tbaa !16
  call void @llvm.lifetime.start.p0(i64 4, ptr %11) #3
  %37 = load ptr, ptr %6, align 8, !tbaa !102
  %38 = call noundef nonnull align 8 dereferenceable(8) ptr @_ZNKSt6vectorIdSaIdEEixEm(ptr noundef nonnull align 8 dereferenceable(24) %37, i64 noundef 4) #3
  %39 = load double, ptr %38, align 8, !tbaa !8
  %40 = fptrunc double %39 to float
  store float %40, ptr %11, align 4, !tbaa !16
  call void @llvm.lifetime.start.p0(i64 4, ptr %12) #3
  %41 = load ptr, ptr %6, align 8, !tbaa !102
  %42 = call noundef nonnull align 8 dereferenceable(8) ptr @_ZNKSt6vectorIdSaIdEEixEm(ptr noundef nonnull align 8 dereferenceable(24) %41, i64 noundef 5) #3
  %43 = load double, ptr %42, align 8, !tbaa !8
  %44 = fptrunc double %43 to float
  store float %44, ptr %12, align 4, !tbaa !16
  call void @llvm.lifetime.start.p0(i64 4, ptr %13) #3
  %45 = load ptr, ptr %6, align 8, !tbaa !102
  %46 = call noundef nonnull align 8 dereferenceable(8) ptr @_ZNKSt6vectorIdSaIdEEixEm(ptr noundef nonnull align 8 dereferenceable(24) %45, i64 noundef 6) #3
  %47 = load double, ptr %46, align 8, !tbaa !8
  %48 = fptrunc double %47 to float
  store float %48, ptr %13, align 4, !tbaa !16
  call void @llvm.lifetime.start.p0(i64 4, ptr %14) #3
  %49 = load ptr, ptr %6, align 8, !tbaa !102
  %50 = call noundef nonnull align 8 dereferenceable(8) ptr @_ZNKSt6vectorIdSaIdEEixEm(ptr noundef nonnull align 8 dereferenceable(24) %49, i64 noundef 7) #3
  %51 = load double, ptr %50, align 8, !tbaa !8
  %52 = fptrunc double %51 to float
  store float %52, ptr %14, align 4, !tbaa !16
  call void @llvm.lifetime.start.p0(i64 64, ptr %15) #3
  call void @llvm.lifetime.start.p0(i64 16, ptr %16) #3
  %53 = load float, ptr %7, align 4, !tbaa !16
  %54 = fpext float %53 to double
  %55 = load float, ptr %8, align 4, !tbaa !16
  %56 = fpext float %55 to double
  call void @_ZN19OpenColorIO_v2_5dev14ChromaticitiesC2Edd(ptr noundef nonnull align 8 dereferenceable(16) %16, double noundef %54, double noundef %56)
  call void @llvm.lifetime.start.p0(i64 16, ptr %17) #3
  %57 = load float, ptr %9, align 4, !tbaa !16
  %58 = fpext float %57 to double
  %59 = load float, ptr %10, align 4, !tbaa !16
  %60 = fpext float %59 to double
  call void @_ZN19OpenColorIO_v2_5dev14ChromaticitiesC2Edd(ptr noundef nonnull align 8 dereferenceable(16) %17, double noundef %58, double noundef %60)
  call void @llvm.lifetime.start.p0(i64 16, ptr %18) #3
  %61 = load float, ptr %11, align 4, !tbaa !16
  %62 = fpext float %61 to double
  %63 = load float, ptr %12, align 4, !tbaa !16
  %64 = fpext float %63 to double
  call void @_ZN19OpenColorIO_v2_5dev14ChromaticitiesC2Edd(ptr noundef nonnull align 8 dereferenceable(16) %18, double noundef %62, double noundef %64)
  call void @llvm.lifetime.start.p0(i64 16, ptr %19) #3
  %65 = load float, ptr %13, align 4, !tbaa !16
  %66 = fpext float %65 to double
  %67 = load float, ptr %14, align 4, !tbaa !16
  %68 = fpext float %67 to double
  call void @_ZN19OpenColorIO_v2_5dev14ChromaticitiesC2Edd(ptr noundef nonnull align 8 dereferenceable(16) %19, double noundef %66, double noundef %68)
  call void @_ZN19OpenColorIO_v2_5dev9PrimariesC2ERKNS_14ChromaticitiesES3_S3_S3_(ptr noundef nonnull align 8 dereferenceable(64) %15, ptr noundef nonnull align 8 dereferenceable(16) %16, ptr noundef nonnull align 8 dereferenceable(16) %17, ptr noundef nonnull align 8 dereferenceable(16) %18, ptr noundef nonnull align 8 dereferenceable(16) %19)
  call void @llvm.lifetime.end.p0(i64 16, ptr %19) #3
  call void @llvm.lifetime.end.p0(i64 16, ptr %18) #3
  call void @llvm.lifetime.end.p0(i64 16, ptr %17) #3
  call void @llvm.lifetime.end.p0(i64 16, ptr %16) #3
  call void @llvm.lifetime.start.p0(i64 112, ptr %20) #3
  call void @_ZN19OpenColorIO_v2_5dev5ACES214init_JMhParamsERKNS_9PrimariesE(ptr dead_on_unwind writable sret(%"struct.OpenColorIO_v2_5dev::ACES2::JMhParams") align 4 %20, ptr noundef nonnull align 8 dereferenceable(64) %15)
  %69 = load ptr, ptr %4, align 8, !tbaa !12
  %70 = load ptr, ptr %5, align 8, !tbaa !14
  call void @_ZN19OpenColorIO_v2_5dev22_Add_JMh_to_RGB_ShaderERSt10shared_ptrINS_16GpuShaderCreatorEERNS_13GpuShaderTextERKNS_5ACES29JMhParamsE(ptr noundef nonnull align 8 dereferenceable(16) %69, ptr noundef nonnull align 8 dereferenceable(764) %70, ptr noundef nonnull align 4 dereferenceable(112) %20)
  call void @llvm.lifetime.end.p0(i64 112, ptr %20) #3
  call void @llvm.lifetime.end.p0(i64 64, ptr %15) #3
  call void @llvm.lifetime.end.p0(i64 4, ptr %14) #3
  call void @llvm.lifetime.end.p0(i64 4, ptr %13) #3
  call void @llvm.lifetime.end.p0(i64 4, ptr %12) #3
  call void @llvm.lifetime.end.p0(i64 4, ptr %11) #3
  call void @llvm.lifetime.end.p0(i64 4, ptr %10) #3
  call void @llvm.lifetime.end.p0(i64 4, ptr %9) #3
  call void @llvm.lifetime.end.p0(i64 4, ptr %8) #3
  call void @llvm.lifetime.end.p0(i64 4, ptr %7) #3
  ret void
}